; Function Attrs: nounwind uwtable
define internal noundef ptr @My_Py_DECREF(ptr readnone captures(none) %0, ptr noundef returned %1) #0 {
  %3 = load i32, ptr %1, align 8, !tbaa !11
  %.not.i = icmp sgt i32 %3, -1
  br i1 %.not.i, label %4, label %Py_INCREF.exit

4:                                                ; preds = %2
  %5 = add nsw i32 %3, -1
  store i32 %5, ptr %1, align 8, !tbaa !11
  %6 = icmp eq i32 %5, 0
  br i1 %6, label %7, label %Py_DECREF.exit

7:                                                ; preds = %4
  tail call void @_Py_Dealloc(ptr noundef nonnull %1) #10
  %.pr = load i32, ptr %1, align 8, !tbaa !11
  br label %Py_DECREF.exit

Py_DECREF.exit:                                   ; preds = %4, %7
  %8 = phi i32 [ %5, %4 ], [ %.pr, %7 ]
  %9 = icmp slt i32 %8, 0
  br i1 %9, label %Py_INCREF.exit, label %10

10:                                               ; preds = %Py_DECREF.exit
  %11 = add nuw i32 %8, 1
  store i32 %11, ptr %1, align 8, !tbaa !11
  br label %Py_INCREF.exit

Py_INCREF.exit:                                   ; preds = %2, %Py_DECREF.exit, %10
  ret ptr %1
}